target datalayout = "e-m:e-p270:32:32-p271:32:32-p272:64:64-i64:64-i128:128-f80:128-n8:16:32:64-S128"
target triple = "x86_64-pc-linux-gnu"

%struct.expert_field = type { i32, i32 }
%struct._dof_2008_16_security_3_1 = type { ptr }

@hf_security_3_1_credential_type = internal global i32 0, align 4
@hf_security_3_1_stage = internal global i32 0, align 4
@hf_security_3_1_security_node_identifier = internal global i32 0, align 4
@ett_security_3_1_security_node_identifier = internal global i32 0, align 4
@ei_c2_c3_c4_format = internal global %struct.expert_field zeroinitializer, align 4
@ei_security_3_1_invalid_stage = internal global %struct.expert_field zeroinitializer, align 4
@.str.737 = private unnamed_addr constant [66 x i8] c"DOF Violation: Type.1.1: Compressed 16-bit Compression Mandatory.\00", align 1

; Function Attrs: null_pointer_is_valid sspstrong uwtable
define internal i32 @dissect_2008_16_security_8(ptr noundef %0, ptr noundef %1, ptr noundef %2, ptr noundef %3) #0 {
  %5 = alloca ptr, align 8
  %6 = alloca ptr, align 8
  %7 = alloca ptr, align 8
  %8 = alloca ptr, align 8
  %9 = alloca i32, align 4
  store ptr %0, ptr %5, align 8
  store ptr %1, ptr %6, align 8
  store ptr %2, ptr %7, align 8
  store ptr %3, ptr %8, align 8
  call void @llvm.lifetime.start.p0(i64 4, ptr %9) #19
  %10 = load ptr, ptr %5, align 8
  %11 = load ptr, ptr %6, align 8
  %12 = load ptr, ptr %7, align 8
  %13 = call i32 @dissect_2009_11_type_4(ptr noundef %10, ptr noundef %11, ptr noundef %12, ptr noundef null)
  store i32 %13, ptr %9, align 4
  %14 = load i32, ptr %9, align 4
  call void @llvm.lifetime.end.p0(i64 4, ptr %9) #19
  ret i32 %14
}

; Function Attrs: null_pointer_is_valid sspstrong uwtable
define internal void @validate_c2(ptr noundef %0, ptr noundef %1, i16 noundef zeroext %2, i32 noundef %3) #0 {
  %5 = alloca ptr, align 8
  %6 = alloca ptr, align 8
  %7 = alloca i16, align 2
  %8 = alloca i32, align 4
  store ptr %0, ptr %5, align 8
  store ptr %1, ptr %6, align 8
  store i16 %2, ptr %7, align 2
  store i32 %3, ptr %8, align 4
  %9 = load i32, ptr %8, align 4
  %10 = icmp sgt i32 %9, 1
  br i1 %10, label %11, label %19

11:                                               ; preds = %4
  %12 = load i16, ptr %7, align 2
  %13 = zext i16 %12 to i32
  %14 = icmp slt i32 %13, 128
  br i1 %14, label %15, label %19

15:                                               ; preds = %11
  %16 = load ptr, ptr %5, align 8
  %17 = load ptr, ptr %6, align 8
  %18 = call ptr (ptr, ptr, ptr, ptr, ...) @expert_add_info_format(ptr noundef %16, ptr noundef %17, ptr noundef @ei_c2_c3_c4_format, ptr noundef @.str.737)
  br label %19

19:                                               ; preds = %15, %11, %4
  ret void
}

; Function Attrs: null_pointer_is_valid sspstrong uwtable
define internal i32 @read_c2(ptr noundef %0, i32 noundef %1, ptr noundef %2, ptr noundef %3) #0 {
  %5 = alloca ptr, align 8
  %6 = alloca i32, align 4
  %7 = alloca ptr, align 8
  %8 = alloca ptr, align 8
  %9 = alloca i16, align 2
  %10 = alloca i8, align 1
  store ptr %0, ptr %5, align 8
  store i32 %1, ptr %6, align 4
  store ptr %2, ptr %7, align 8
  store ptr %3, ptr %8, align 8
  call void @llvm.lifetime.start.p0(i64 2, ptr %9) #19
  store i16 0, ptr %9, align 2
  call void @llvm.lifetime.start.p0(i64 1, ptr %10) #19
  %11 = load ptr, ptr %5, align 8
  %12 = load i32, ptr %6, align 4
  %13 = add i32 %12, 1
  store i32 %13, ptr %6, align 4
  %14 = call zeroext i8 @tvb_get_uint8(ptr noundef %11, i32 noundef %12)
  store i8 %14, ptr %10, align 1
  %15 = load i8, ptr %10, align 1
  %16 = zext i8 %15 to i32
  %17 = and i32 %16, 128
  %18 = icmp ne i32 %17, 0
  br i1 %18, label %19, label %39

19:                                               ; preds = %4
  %20 = load i8, ptr %10, align 1
  %21 = zext i8 %20 to i32
  %22 = and i32 %21, 127
  %23 = trunc i32 %22 to i8
  store i8 %23, ptr %10, align 1
  %24 = load i8, ptr %10, align 1
  %25 = zext i8 %24 to i32
  %26 = shl i32 %25, 8
  %27 = load ptr, ptr %5, align 8
  %28 = load i32, ptr %6, align 4
  %29 = add i32 %28, 1
  store i32 %29, ptr %6, align 4
  %30 = call zeroext i8 @tvb_get_uint8(ptr noundef %27, i32 noundef %28)
  %31 = zext i8 %30 to i32
  %32 = or i32 %26, %31
  %33 = trunc i32 %32 to i16
  store i16 %33, ptr %9, align 2
  %34 = load ptr, ptr %8, align 8
  %35 = icmp ne ptr %34, null
  br i1 %35, label %36, label %38

36:                                               ; preds = %19
  %37 = load ptr, ptr %8, align 8
  store i32 2, ptr %37, align 4
  br label %38

38:                                               ; preds = %36, %19
  br label %47

39:                                               ; preds = %4
  %40 = load i8, ptr %10, align 1
  %41 = zext i8 %40 to i16
  store i16 %41, ptr %9, align 2
  %42 = load ptr, ptr %8, align 8
  %43 = icmp ne ptr %42, null
  br i1 %43, label %44, label %46

44:                                               ; preds = %39
  %45 = load ptr, ptr %8, align 8
  store i32 1, ptr %45, align 4
  br label %46

46:                                               ; preds = %44, %39
  br label %47

47:                                               ; preds = %46, %38
  %48 = load ptr, ptr %7, align 8
  %49 = icmp ne ptr %48, null
  br i1 %49, label %50, label %53

50:                                               ; preds = %47
  %51 = load i16, ptr %9, align 2
  %52 = load ptr, ptr %7, align 8
  store i16 %51, ptr %52, align 2
  br label %53

53:                                               ; preds = %50, %47
  %54 = load i32, ptr %6, align 4
  call void @llvm.lifetime.end.p0(i64 1, ptr %10) #19
  call void @llvm.lifetime.end.p0(i64 2, ptr %9) #19
  ret i32 %54
}

; Function Attrs: null_pointer_is_valid sspstrong uwtable
define internal i32 @dissect_2008_16_security_3_1(ptr noundef %0, ptr noundef %1, ptr noundef %2, ptr noundef %3) #0 {
  %5 = alloca ptr, align 8
  %6 = alloca ptr, align 8
  %7 = alloca ptr, align 8
  %8 = alloca ptr, align 8
  %9 = alloca i32, align 4
  %10 = alloca i8, align 1
  %11 = alloca ptr, align 8
  %12 = alloca ptr, align 8
  %13 = alloca i32, align 4
  %14 = alloca i16, align 2
  %15 = alloca i32, align 4
  %16 = alloca ptr, align 8
  %17 = alloca i32, align 4
  %18 = alloca ptr, align 8
  %19 = alloca ptr, align 8
  store ptr %0, ptr %5, align 8
  store ptr %1, ptr %6, align 8
  store ptr %2, ptr %7, align 8
  store ptr %3, ptr %8, align 8
  call void @llvm.lifetime.start.p0(i64 4, ptr %9) #19
  store i32 0, ptr %9, align 4
  call void @llvm.lifetime.start.p0(i64 1, ptr %10) #19
  call void @llvm.lifetime.start.p0(i64 8, ptr %11) #19
  call void @llvm.lifetime.start.p0(i64 8, ptr %12) #19
  %20 = load ptr, ptr %8, align 8
  store ptr %20, ptr %12, align 8
  call void @llvm.lifetime.start.p0(i64 4, ptr %13) #19
  %21 = load i32, ptr %9, align 4
  store i32 %21, ptr %13, align 4
  call void @llvm.lifetime.start.p0(i64 2, ptr %14) #19
  call void @llvm.lifetime.start.p0(i64 4, ptr %15) #19
  call void @llvm.lifetime.start.p0(i64 8, ptr %16) #19
  %22 = load ptr, ptr %5, align 8
  %23 = load i32, ptr %9, align 4
  %24 = call i32 @read_c2(ptr noundef %22, i32 noundef %23, ptr noundef %14, ptr noundef %15)
  store i32 %24, ptr %9, align 4
  %25 = load ptr, ptr %7, align 8
  %26 = load i32, ptr @hf_security_3_1_credential_type, align 4
  %27 = load ptr, ptr %5, align 8
  %28 = load i32, ptr %13, align 4
  %29 = load i32, ptr %9, align 4
  %30 = load i32, ptr %13, align 4
  %31 = sub i32 %29, %30
  %32 = load i16, ptr %14, align 2
  %33 = zext i16 %32 to i32
  %34 = call ptr @proto_tree_add_uint(ptr noundef %25, i32 noundef %26, ptr noundef %27, i32 noundef %28, i32 noundef %31, i32 noundef %33)
  store ptr %34, ptr %16, align 8
  %35 = load ptr, ptr %6, align 8
  %36 = load ptr, ptr %16, align 8
  %37 = load i16, ptr %14, align 2
  %38 = load i32, ptr %15, align 4
  call void @validate_c2(ptr noundef %35, ptr noundef %36, i16 noundef zeroext %37, i32 noundef %38)
  call void @llvm.lifetime.end.p0(i64 8, ptr %16) #19
  call void @llvm.lifetime.end.p0(i64 4, ptr %15) #19
  call void @llvm.lifetime.end.p0(i64 2, ptr %14) #19
  call void @llvm.lifetime.end.p0(i64 4, ptr %13) #19
  %39 = load ptr, ptr %5, align 8
  %40 = load i32, ptr %9, align 4
  %41 = call zeroext i8 @tvb_get_uint8(ptr noundef %39, i32 noundef %40)
  store i8 %41, ptr %10, align 1
  %42 = load ptr, ptr %7, align 8
  %43 = load i32, ptr @hf_security_3_1_stage, align 4
  %44 = load ptr, ptr %5, align 8
  %45 = load i32, ptr %9, align 4
  %46 = call ptr @proto_tree_add_item(ptr noundef %42, i32 noundef %43, ptr noundef %44, i32 noundef %45, i32 noundef 1, i32 noundef 0)
  store ptr %46, ptr %11, align 8
  %47 = load i32, ptr %9, align 4
  %48 = add i32 %47, 1
  store i32 %48, ptr %9, align 4
  %49 = load i8, ptr %10, align 1
  %50 = zext i8 %49 to i32
  %51 = icmp ne i32 %50, 0
  br i1 %51, label %52, label %56

52:                                               ; preds = %4
  %53 = load ptr, ptr %6, align 8
  %54 = load ptr, ptr %11, align 8
  %55 = call ptr @expert_add_info(ptr noundef %53, ptr noundef %54, ptr noundef @ei_security_3_1_invalid_stage)
  br label %56

56:                                               ; preds = %52, %4
  call void @llvm.lifetime.start.p0(i64 4, ptr %17) #19
  call void @llvm.lifetime.start.p0(i64 8, ptr %18) #19
  %57 = load ptr, ptr %5, align 8
  %58 = load i32, ptr %9, align 4
  %59 = call ptr @tvb_new_subset_remaining(ptr noundef %57, i32 noundef %58)
  store ptr %59, ptr %18, align 8
  call void @llvm.lifetime.start.p0(i64 8, ptr %19) #19
  %60 = load ptr, ptr %7, align 8
  %61 = load i32, ptr @hf_security_3_1_security_node_identifier, align 4
  %62 = load ptr, ptr %5, align 8
  %63 = load i32, ptr %9, align 4
  %64 = call ptr @proto_tree_add_item(ptr noundef %60, i32 noundef %61, ptr noundef %62, i32 noundef %63, i32 noundef 0, i32 noundef 0)
  store ptr %64, ptr %11, align 8
  %65 = load ptr, ptr %11, align 8
  %66 = load i32, ptr @ett_security_3_1_security_node_identifier, align 4
  %67 = call ptr @proto_item_add_subtree(ptr noundef %65, i32 noundef %66)
  store ptr %67, ptr %19, align 8
  %68 = load ptr, ptr %18, align 8
  %69 = load ptr, ptr %6, align 8
  %70 = load ptr, ptr %19, align 8
  %71 = call i32 @dissect_2008_16_security_8(ptr noundef %68, ptr noundef %69, ptr noundef %70, ptr noundef null)
  store i32 %71, ptr %17, align 4
  %72 = load ptr, ptr %11, align 8
  %73 = load i32, ptr %17, align 4
  call void @proto_item_set_len(ptr noundef %72, i32 noundef %73)
  %74 = load i32, ptr %17, align 4
  %75 = load i32, ptr %9, align 4
  %76 = add i32 %75, %74
  store i32 %76, ptr %9, align 4
  %77 = load ptr, ptr %18, align 8
  %78 = load i32, ptr %17, align 4
  call void @tvb_set_reported_length(ptr noundef %77, i32 noundef %78)
  %79 = load ptr, ptr %12, align 8
  %80 = icmp ne ptr %79, null
  br i1 %80, label %81, label %85

81:                                               ; preds = %56
  %82 = load ptr, ptr %18, align 8
  %83 = load ptr, ptr %12, align 8
  %84 = getelementptr inbounds nuw %struct._dof_2008_16_security_3_1, ptr %83, i32 0, i32 0
  store ptr %82, ptr %84, align 8
  br label %85

85:                                               ; preds = %81, %56
  call void @llvm.lifetime.end.p0(i64 8, ptr %19) #19
  call void @llvm.lifetime.end.p0(i64 8, ptr %18) #19
  call void @llvm.lifetime.end.p0(i64 4, ptr %17) #19
  %86 = load i32, ptr %9, align 4
  call void @llvm.lifetime.end.p0(i64 8, ptr %12) #19
  call void @llvm.lifetime.end.p0(i64 8, ptr %11) #19
  call void @llvm.lifetime.end.p0(i64 1, ptr %10) #19
  call void @llvm.lifetime.end.p0(i64 4, ptr %9) #19
  ret i32 %86
}