; Function Attrs: null_pointer_is_valid sspstrong uwtable
define internal i32 @dissect_2008_16_security_3_1(ptr noundef %0, ptr noundef %1, ptr noundef %2, ptr noundef writeonly captures(address_is_null) %3) #0 {
  %5 = tail call zeroext i8 @tvb_get_uint8(ptr noundef %0, i32 noundef 0)
  %.not.i = icmp slt i8 %5, 0
  br i1 %.not.i, label %6, label %13

6:                                                ; preds = %4
  %7 = and i8 %5, 127
  %8 = zext nneg i8 %7 to i16
  %9 = shl nuw nsw i16 %8, 8
  %10 = tail call zeroext i8 @tvb_get_uint8(ptr noundef %0, i32 noundef 1)
  %11 = zext i8 %10 to i16
  %12 = or disjoint i16 %9, %11
  br label %read_c2.exit

13:                                               ; preds = %4
  %14 = zext nneg i8 %5 to i16
  br label %read_c2.exit

read_c2.exit:                                     ; preds = %6, %13
  %.sink.i = phi i32 [ 2, %6 ], [ 1, %13 ]
  %.0.ph.i = phi i16 [ %12, %6 ], [ %14, %13 ]
  %15 = load i32, ptr @hf_security_3_1_credential_type, align 4
  %16 = zext nneg i16 %.0.ph.i to i32
  %17 = tail call ptr @proto_tree_add_uint(ptr noundef %2, i32 noundef %15, ptr noundef %0, i32 noundef 0, i32 noundef %.sink.i, i32 noundef %16)
  %18 = icmp samesign ult i16 %.0.ph.i, 128
  %or.cond.i = and i1 %.not.i, %18
  br i1 %or.cond.i, label %19, label %validate_c2.exit

19:                                               ; preds = %read_c2.exit
  %20 = tail call ptr (ptr, ptr, ptr, ptr, ...) @expert_add_info_format(ptr noundef %1, ptr noundef %17, ptr noundef nonnull @ei_c2_c3_c4_format, ptr noundef nonnull @.str.737)
  br label %validate_c2.exit

validate_c2.exit:                                 ; preds = %read_c2.exit, %19
  %21 = tail call zeroext i8 @tvb_get_uint8(ptr noundef %0, i32 noundef %.sink.i)
  %22 = load i32, ptr @hf_security_3_1_stage, align 4
  %23 = tail call ptr @proto_tree_add_item(ptr noundef %2, i32 noundef %22, ptr noundef %0, i32 noundef %.sink.i, i32 noundef 1, i32 noundef 0)
  %24 = add nuw nsw i32 %.sink.i, 1
  %.not = icmp eq i8 %21, 0
  br i1 %.not, label %27, label %25

25:                                               ; preds = %validate_c2.exit
  %26 = tail call ptr @expert_add_info(ptr noundef %1, ptr noundef %23, ptr noundef nonnull @ei_security_3_1_invalid_stage)
  br label %27

27:                                               ; preds = %25, %validate_c2.exit
  %28 = tail call ptr @tvb_new_subset_remaining(ptr noundef %0, i32 noundef %24)
  %29 = load i32, ptr @hf_security_3_1_security_node_identifier, align 4
  %30 = tail call ptr @proto_tree_add_item(ptr noundef %2, i32 noundef %29, ptr noundef %0, i32 noundef %24, i32 noundef 0, i32 noundef 0)
  %31 = load i32, ptr @ett_security_3_1_security_node_identifier, align 4
  %32 = tail call ptr @proto_item_add_subtree(ptr noundef %30, i32 noundef %31)
  %33 = tail call i32 @dissect_2009_11_type_4(ptr noundef %28, ptr noundef %1, ptr noundef %32, ptr poison)
  tail call void @proto_item_set_len(ptr noundef %30, i32 noundef %33)
  tail call void @tvb_set_reported_length(ptr noundef %28, i32 noundef %33)
  %.not38 = icmp eq ptr %3, null
  br i1 %.not38, label %35, label %34

34:                                               ; preds = %27
  store ptr %28, ptr %3, align 8
  br label %35

35:                                               ; preds = %34, %27
  %36 = add i32 %33, %24
  ret i32 %36
}